; ModuleID = 'source-C-CXX/3/25.c'
source_filename = "source-C-CXX/3/25.c"
target datalayout = "e-m:e-p270:32:32-p271:32:32-p272:64:64-i64:64-f80:128-n8:16:32:64-S128"
target triple = "x86_64-pc-linux-gnu"

@.str = private unnamed_addr constant [5 x i8] c"%d%d\00", align 1
@.str.1 = private unnamed_addr constant [3 x i8] c"%d\00", align 1
@.str.2 = private unnamed_addr constant [4 x i8] c"\0A%d\00", align 1

; Function Attrs: nofree nounwind sspstrong uwtable
define dso_local i32 @main() local_unnamed_addr #0 {
  %1 = alloca [100 x [100 x i32]], align 16
  %2 = alloca i32, align 4
  %3 = alloca i32, align 4
  %4 = bitcast [100 x [100 x i32]]* %1 to i8*
  call void @llvm.lifetime.start.p0i8(i64 40000, i8* nonnull %4) #4
  %5 = bitcast i32* %2 to i8*
  call void @llvm.lifetime.start.p0i8(i64 4, i8* nonnull %5) #4
  %6 = bitcast i32* %3 to i8*
  call void @llvm.lifetime.start.p0i8(i64 4, i8* nonnull %6) #4
  %7 = call i32 (i8*, ...) @__isoc99_scanf(i8* getelementptr inbounds ([5 x i8], [5 x i8]* @.str, i64 0, i64 0), i32* nonnull %2, i32* nonnull %3)
  %8 = load i32, i32* %2, align 4, !tbaa !5
  %9 = icmp sgt i32 %8, 0
  %10 = load i32, i32* %3, align 4, !tbaa !5
  %11 = icmp sgt i32 %10, 0
  %12 = select i1 %9, i1 %11, i1 false
  br i1 %12, label %13, label %18

13:                                               ; preds = %0, %35
  %14 = phi i32 [ %36, %35 ], [ %8, %0 ]
  %15 = phi i32 [ %37, %35 ], [ %10, %0 ]
  %16 = phi i64 [ %38, %35 ], [ 0, %0 ]
  %17 = icmp sgt i32 %15, 0
  br i1 %17, label %25, label %35

18:                                               ; preds = %35, %0
  %19 = phi i32 [ %10, %0 ], [ %37, %35 ]
  %20 = phi i32 [ %8, %0 ], [ %36, %35 ]
  %21 = getelementptr inbounds [100 x [100 x i32]], [100 x [100 x i32]]* %1, i64 0, i64 0, i64 0
  %22 = add i32 %20, -1
  %23 = add i32 %22, %19
  %24 = icmp sgt i32 %23, 0
  br i1 %24, label %41, label %80

25:                                               ; preds = %13, %25
  %26 = phi i64 [ %29, %25 ], [ 0, %13 ]
  %27 = getelementptr inbounds [100 x [100 x i32]], [100 x [100 x i32]]* %1, i64 0, i64 %16, i64 %26
  %28 = call i32 (i8*, ...) @__isoc99_scanf(i8* getelementptr inbounds ([3 x i8], [3 x i8]* @.str.1, i64 0, i64 0), i32* nonnull %27)
  %29 = add nuw nsw i64 %26, 1
  %30 = load i32, i32* %3, align 4, !tbaa !5
  %31 = sext i32 %30 to i64
  %32 = icmp slt i64 %29, %31
  br i1 %32, label %25, label %33, !llvm.loop !9

33:                                               ; preds = %25
  %34 = load i32, i32* %2, align 4, !tbaa !5
  br label %35

35:                                               ; preds = %33, %13
  %36 = phi i32 [ %34, %33 ], [ %14, %13 ]
  %37 = phi i32 [ %30, %33 ], [ %15, %13 ]
  %38 = add nuw nsw i64 %16, 1
  %39 = sext i32 %36 to i64
  %40 = icmp slt i64 %38, %39
  br i1 %40, label %13, label %18, !llvm.loop !11

41:                                               ; preds = %18, %71
  %42 = phi i32 [ %73, %71 ], [ %20, %18 ]
  %43 = phi i64 [ %72, %71 ], [ 0, %18 ]
  %44 = phi i64 [ %79, %71 ], [ 1, %18 ]
  br label %45

45:                                               ; preds = %69, %41
  %46 = phi i32 [ %42, %41 ], [ %70, %69 ]
  %47 = phi i64 [ 0, %41 ], [ %67, %69 ]
  %48 = sext i32 %46 to i64
  %49 = icmp slt i64 %47, %48
  br i1 %49, label %50, label %66

50:                                               ; preds = %45
  %51 = sub nsw i64 %43, %47
  %52 = load i32, i32* %3, align 4, !tbaa !5
  %53 = sext i32 %52 to i64
  %54 = icmp slt i64 %51, %53
  br i1 %54, label %55, label %66

55:                                               ; preds = %50
  %56 = icmp eq i64 %47, 0
  %57 = icmp eq i64 %51, 0
  %58 = select i1 %56, i1 %57, i1 false
  br i1 %58, label %59, label %62

59:                                               ; preds = %55
  %60 = load i32, i32* %21, align 16, !tbaa !5
  %61 = call i32 (i8*, ...) @printf(i8* nonnull dereferenceable(1) getelementptr inbounds ([3 x i8], [3 x i8]* @.str.1, i64 0, i64 0), i32 %60)
  br label %66

62:                                               ; preds = %55
  %63 = getelementptr inbounds [100 x [100 x i32]], [100 x [100 x i32]]* %1, i64 0, i64 %47, i64 %51
  %64 = load i32, i32* %63, align 4, !tbaa !5
  %65 = call i32 (i8*, ...) @printf(i8* nonnull dereferenceable(1) getelementptr inbounds ([4 x i8], [4 x i8]* @.str.2, i64 0, i64 0), i32 %64)
  br label %66

66:                                               ; preds = %45, %50, %62, %59
  %67 = add nuw nsw i64 %47, 1
  %68 = icmp eq i64 %67, %44
  br i1 %68, label %71, label %69, !llvm.loop !13

69:                                               ; preds = %66
  %70 = load i32, i32* %2, align 4, !tbaa !5
  br label %45

71:                                               ; preds = %66
  %72 = add nuw nsw i64 %43, 1
  %73 = load i32, i32* %2, align 4, !tbaa !5
  %74 = load i32, i32* %3, align 4, !tbaa !5
  %75 = add i32 %73, -1
  %76 = add i32 %75, %74
  %77 = sext i32 %76 to i64
  %78 = icmp slt i64 %72, %77
  %79 = add nuw nsw i64 %44, 1
  br i1 %78, label %41, label %80, !llvm.loop !14

80:                                               ; preds = %71, %18
  %81 = call i32 @putchar(i32 10)
  call void @llvm.lifetime.end.p0i8(i64 4, i8* nonnull %6) #4
  call void @llvm.lifetime.end.p0i8(i64 4, i8* nonnull %5) #4
  call void @llvm.lifetime.end.p0i8(i64 40000, i8* nonnull %4) #4
  ret i32 0
}

; Function Attrs: argmemonly mustprogress nofree nosync nounwind willreturn
declare void @llvm.lifetime.start.p0i8(i64 immarg, i8* nocapture) #1

; Function Attrs: nofree nounwind
declare noundef i32 @__isoc99_scanf(i8* nocapture noundef readonly, ...) local_unnamed_addr #2

; Function Attrs: nofree nounwind
declare noundef i32 @printf(i8* nocapture noundef readonly, ...) local_unnamed_addr #2

; Function Attrs: argmemonly mustprogress nofree nosync nounwind willreturn
declare void @llvm.lifetime.end.p0i8(i64 immarg, i8* nocapture) #1

; Function Attrs: nofree nounwind
declare noundef i32 @putchar(i32 noundef) local_unnamed_addr #3


!llvm.module.flags = !{!0, !1, !2, !3}
!llvm.ident = !{!4}

!0 = !{i32 1, !"wchar_size", i32 4}
!1 = !{i32 7, !"PIC Level", i32 2}
!2 = !{i32 7, !"PIE Level", i32 2}
!3 = !{i32 7, !"uwtable", i32 1}
!4 = !{!"clang version 13.0.0"}
!5 = !{!6, !6, i64 0}
!6 = !{!"int", !7, i64 0}
!7 = !{!"omnipotent char", !8, i64 0}
!8 = !{!"Simple C/C++ TBAA"}
!9 = distinct !{!9, !10}
!10 = !{!"llvm.loop.mustprogress"}
!11 = distinct !{!11, !10, !12}
!12 = !{!"llvm.loop.unswitch.partial.disable"}
!13 = distinct !{!13, !10}
!14 = distinct !{!14, !10}
